target datalayout = "e-m:e-p270:32:32-p271:32:32-p272:64:64-i64:64-i128:128-f80:128-n8:16:32:64-S128"
target triple = "x86_64-pc-linux-gnu"

; Function Attrs: mustprogress uwtable
define noundef zeroext i1 @_ZN32pxrInternal_v0_24__pxrReserved__11TfTouchFileERKNSt7__cxx1112basic_stringIcSt11char_traitsIcESaIcEEEb(ptr noundef nonnull align 8 dereferenceable(32) %0, i1 noundef zeroext %1) #0 {
  %3 = alloca i1, align 1
  %4 = alloca ptr, align 8
  %5 = alloca i8, align 1
  %6 = alloca i32, align 4
  store ptr %0, ptr %4, align 8
  %7 = zext i1 %1 to i8
  store i8 %7, ptr %5, align 1
  %8 = load i8, ptr %5, align 1
  %9 = trunc i8 %8 to i1
  br i1 %9, label %10, label %20

10:                                               ; preds = %2
  %11 = load ptr, ptr %4, align 8
  %12 = call noundef ptr @_ZNKSt7__cxx1112basic_stringIcSt11char_traitsIcESaIcEE5c_strEv(ptr noundef nonnull align 8 dereferenceable(32) %11) #6
  %13 = call i32 (ptr, i32, ...) @open(ptr noundef %12, i32 noundef 2369, i32 noundef 438)
  store i32 %13, ptr %6, align 4
  %14 = load i32, ptr %6, align 4
  %15 = icmp eq i32 %14, -1
  br i1 %15, label %16, label %17

16:                                               ; preds = %10
  store i1 false, ptr %3, align 1
  br label %25

17:                                               ; preds = %10
  %18 = load i32, ptr %6, align 4
  %19 = call i32 @close(i32 noundef %18)
  br label %20

20:                                               ; preds = %17, %2
  %21 = load ptr, ptr %4, align 8
  %22 = call noundef ptr @_ZNKSt7__cxx1112basic_stringIcSt11char_traitsIcESaIcEE5c_strEv(ptr noundef nonnull align 8 dereferenceable(32) %21) #6
  %23 = call i32 @utimes(ptr noundef %22, ptr noundef null) #6
  %24 = icmp eq i32 %23, 0
  store i1 %24, ptr %3, align 1
  br label %25

25:                                               ; preds = %20, %16
  %26 = load i1, ptr %3, align 1
  ret i1 %26
}