; Function Attrs: mustprogress uwtable
define noundef zeroext i1 @_ZN32pxrInternal_v0_24__pxrReserved__11TfTouchFileERKNSt7__cxx1112basic_stringIcSt11char_traitsIcESaIcEEEb(ptr noundef nonnull align 8 dereferenceable(32) %0, i1 noundef zeroext %1) local_unnamed_addr #3 {
  br i1 %1, label %3, label %9

3:                                                ; preds = %2
  %4 = tail call noundef ptr @_ZNKSt7__cxx1112basic_stringIcSt11char_traitsIcESaIcEE5c_strEv(ptr noundef nonnull align 8 dereferenceable(32) %0) #21
  %5 = tail call i32 (ptr, i32, ...) @open(ptr noundef %4, i32 noundef 2369, i32 noundef 438)
  %6 = icmp eq i32 %5, -1
  br i1 %6, label %13, label %7

7:                                                ; preds = %3
  %8 = tail call i32 @close(i32 noundef %5)
  br label %9

9:                                                ; preds = %7, %2
  %10 = tail call noundef ptr @_ZNKSt7__cxx1112basic_stringIcSt11char_traitsIcESaIcEE5c_strEv(ptr noundef nonnull align 8 dereferenceable(32) %0) #21
  %11 = tail call i32 @utimes(ptr noundef %10, ptr noundef null) #21
  %12 = icmp eq i32 %11, 0
  br label %13

13:                                               ; preds = %3, %9
  %.0 = phi i1 [ %12, %9 ], [ false, %3 ]
  ret i1 %.0
}